; Function Attrs: mustprogress nofree norecurse nosync nounwind willreturn memory(argmem: readwrite) uwtable
define void @_ZN32pxrInternal_v0_24__pxrReserved__5GfRay7SetEndsERKNS_7GfVec3dES3_(ptr nocapture noundef nonnull writeonly align 8 dereferenceable(48) %0, ptr nocapture noundef nonnull readonly align 8 dereferenceable(24) %1, ptr nocapture noundef nonnull readonly align 8 dereferenceable(24) %2) local_unnamed_addr #1 align 2 {
  tail call void @llvm.memcpy.p0.p0.i64(ptr noundef nonnull align 8 dereferenceable(24) %0, ptr noundef nonnull align 8 dereferenceable(24) %1, i64 24, i1 false)
  %.sroa.0.0.copyload.i = load double, ptr %2, align 8, !noalias !4
  %.sroa.4.0..sroa_idx.i = getelementptr inbounds i8, ptr %2, i64 8
  %.sroa.4.0.copyload.i = load double, ptr %.sroa.4.0..sroa_idx.i, align 8, !noalias !4
  %.sroa.6.0..sroa_idx.i = getelementptr inbounds i8, ptr %2, i64 16
  %.sroa.6.0.copyload.i = load double, ptr %.sroa.6.0..sroa_idx.i, align 8, !noalias !4
  %4 = load double, ptr %1, align 8, !noalias !4
  %5 = fsub double %.sroa.0.0.copyload.i, %4
  %6 = getelementptr inbounds i8, ptr %1, i64 8
  %7 = load double, ptr %6, align 8, !noalias !4
  %8 = fsub double %.sroa.4.0.copyload.i, %7
  %9 = getelementptr inbounds i8, ptr %1, i64 16
  %10 = load double, ptr %9, align 8, !noalias !4
  %11 = fsub double %.sroa.6.0.copyload.i, %10
  %12 = getelementptr inbounds nuw i8, ptr %0, i64 24
  store double %5, ptr %12, align 8
  %.sroa.2.0..sroa_idx = getelementptr inbounds i8, ptr %0, i64 32
  store double %8, ptr %.sroa.2.0..sroa_idx, align 8
  %.sroa.3.0..sroa_idx = getelementptr inbounds i8, ptr %0, i64 40
  store double %11, ptr %.sroa.3.0..sroa_idx, align 8
  ret void
}